; Function Attrs: mustprogress uwtable
define noundef nonnull align 8 dereferenceable(8) ptr @_ZNK6casadi18DaeBuilderInternal3varERKNSt7__cxx1112basic_stringIcSt11char_traitsIcESaIcEEE(ptr noundef nonnull align 8 dereferenceable(1017) %0, ptr noundef nonnull align 8 dereferenceable(32) %1) local_unnamed_addr #4 align 2 {
  %3 = tail call noundef i64 @_ZNK6casadi18DaeBuilderInternal4findERKNSt7__cxx1112basic_stringIcSt11char_traitsIcESaIcEEE(ptr noundef nonnull align 8 dereferenceable(1017) %0, ptr noundef nonnull align 8 dereferenceable(32) %1)
  %4 = getelementptr inbounds nuw i8, ptr %0, i64 552
  %5 = getelementptr inbounds nuw i8, ptr %0, i64 560
  %6 = load ptr, ptr %5, align 8, !tbaa !145
  %7 = load ptr, ptr %4, align 8, !tbaa !148
  %8 = ptrtoint ptr %6 to i64
  %9 = ptrtoint ptr %7 to i64
  %10 = sub i64 %8, %9
  %11 = ashr exact i64 %10, 3
  %.not.i.i.i.i = icmp ult i64 %3, %11
  br i1 %.not.i.i.i.i, label %_ZNK6casadi18DaeBuilderInternal8variableERKNSt7__cxx1112basic_stringIcSt11char_traitsIcESaIcEEE.exit, label %12

12:                                               ; preds = %2
  tail call void (ptr, ...) @_ZSt24__throw_out_of_range_fmtPKcz(ptr noundef nonnull @.str.690, i64 noundef %3, i64 noundef %11) #29
  unreachable

_ZNK6casadi18DaeBuilderInternal8variableERKNSt7__cxx1112basic_stringIcSt11char_traitsIcESaIcEEE.exit: ; preds = %2
  %13 = getelementptr inbounds nuw ptr, ptr %7, i64 %3
  %14 = load ptr, ptr %13, align 8, !tbaa !149
  %15 = getelementptr inbounds nuw i8, ptr %14, i64 384
  ret ptr %15
}